;--------------------------------------------------------
; File Created by SDCC : free open source ANSI-C Compiler
; Version 4.1.6 #12439 (MINGW32)
;--------------------------------------------------------
	.module main
	.optsdcc -mgbz80
	
;--------------------------------------------------------
; Public variables in this module
;--------------------------------------------------------
	.globl _main
	.globl _set_sprite_data
	.globl _delay
	.globl _Smile
;--------------------------------------------------------
; special function registers
;--------------------------------------------------------
;--------------------------------------------------------
; ram data
;--------------------------------------------------------
	.area _DATA
;--------------------------------------------------------
; ram data
;--------------------------------------------------------
	.area _INITIALIZED
_Smile::
	.ds 32
;--------------------------------------------------------
; absolute external ram data
;--------------------------------------------------------
	.area _DABS (ABS)
;--------------------------------------------------------
; global & static initialisations
;--------------------------------------------------------
	.area _HOME
	.area _GSINIT
	.area _GSFINAL
	.area _GSINIT
;--------------------------------------------------------
; Home
;--------------------------------------------------------
	.area _HOME
	.area _HOME
;--------------------------------------------------------
; code
;--------------------------------------------------------
	.area _CODE
;main.c:5: void main(){
;	---------------------------------
; Function main
; ---------------------------------
_main::
;main.c:6: UINT8 currentSpriteIndex = 0;
	ld	c, #0x00
;main.c:7: set_sprite_data(0,2,Smile);
	ld	de, #_Smile
	push	de
	ld	hl, #0x200
	push	hl
	call	_set_sprite_data
	add	sp, #4
;c:/gbdk/include/gb/gb.h:1174: shadow_OAM[nb].tile=tile;
	ld	hl, #(_shadow_OAM + 2)
	ld	(hl), #0x00
;c:/gbdk/include/gb/gb.h:1247: OAM_item_t * itm = &shadow_OAM[nb];
	ld	hl, #_shadow_OAM
;c:/gbdk/include/gb/gb.h:1248: itm->y=y, itm->x=x;
	ld	a, #0x4e
	ld	(hl+), a
	ld	(hl), #0x58
;main.c:10: SHOW_SPRITES;
	ldh	a, (_LCDC_REG + 0)
	or	a, #0x02
	ldh	(_LCDC_REG + 0), a
;main.c:12: while(1){
00105$:
;main.c:13: if(currentSpriteIndex== 0){
	ld	a, c
	or	a, a
;main.c:14: currentSpriteIndex = 1;
;main.c:18: currentSpriteIndex = 0;
	ld	c, #0x01
	jr	Z, 00103$
	ld	c, #0x00
00103$:
;c:/gbdk/include/gb/gb.h:1174: shadow_OAM[nb].tile=tile;
	ld	hl, #(_shadow_OAM + 2)
	ld	(hl), c
;main.c:22: delay(1000);
	push	bc
	ld	de, #0x03e8
	push	de
	call	_delay
	pop	hl
	pop	bc
;c:/gbdk/include/gb/gb.h:1263: OAM_item_t * itm = &shadow_OAM[nb];
	ld	de, #_shadow_OAM+0
;c:/gbdk/include/gb/gb.h:1264: itm->y+=y, itm->x+=x;
	ld	a, (de)
	ld	(de), a
	inc	de
	ld	a, (de)
	add	a, #0x0a
	ld	(de), a
;main.c:23: scroll_sprite(0,10,0);
;main.c:29: }
	jr	00105$
	.area _CODE
	.area _INITIALIZER
__xinit__Smile:
	.db #0x7c	; 124
	.db #0x7c	; 124
	.db #0xff	; 255
	.db #0x81	; 129
	.db #0xff	; 255
	.db #0xa5	; 165
	.db #0xff	; 255
	.db #0x81	; 129
	.db #0xff	; 255
	.db #0x81	; 129
	.db #0xff	; 255
	.db #0xbd	; 189
	.db #0xff	; 255
	.db #0x81	; 129
	.db #0x7e	; 126
	.db #0x7e	; 126
	.db #0x7c	; 124
	.db #0x7c	; 124
	.db #0xff	; 255
	.db #0x81	; 129
	.db #0xff	; 255
	.db #0xa5	; 165
	.db #0xff	; 255
	.db #0x81	; 129
	.db #0xff	; 255
	.db #0xa5	; 165
	.db #0xff	; 255
	.db #0x99	; 153
	.db #0xff	; 255
	.db #0x81	; 129
	.db #0x7e	; 126
	.db #0x7e	; 126
	.area _CABS (ABS)
